; Function Attrs: null_pointer_is_valid sspstrong uwtable
define internal range(i32 -2147483648, 11) i32 @dissect_s_supervisor_target_unid(ptr noundef %0, ptr readnone captures(none) %1, ptr noundef %2, ptr noundef %3, i32 noundef %4, i32 noundef %5) #2 {
  %7 = icmp slt i32 %5, 10
  br i1 %7, label %8, label %10

8:                                                ; preds = %6
  %9 = tail call ptr @expert_add_info(ptr noundef %0, ptr noundef %2, ptr noundef nonnull @ei_mal_ssupervisor_target_unid)
  br label %17

10:                                               ; preds = %6
  %11 = load i32, ptr @hf_cip_ssupervisor_target_unid_snn_timestamp, align 4
  %12 = load i32, ptr @hf_cip_ssupervisor_target_unid_snn_date, align 4
  %13 = load i32, ptr @hf_cip_ssupervisor_target_unid_snn_time, align 4
  %14 = load i32, ptr @hf_cip_ssupervisor_target_unid_nodeid, align 4
  %15 = load i32, ptr @ett_ssupervisor_target_unid, align 4
  %16 = load i32, ptr @ett_ssupervisor_target_unid_snn, align 4
  tail call void @dissect_unid(ptr noundef %3, ptr poison, i32 noundef %4, ptr noundef %2, ptr noundef nonnull @.str.439, i32 noundef %11, i32 noundef %12, i32 noundef %13, i32 noundef %14, i32 noundef %15, i32 noundef %16)
  br label %17

17:                                               ; preds = %10, %8
  %.0 = phi i32 [ %5, %8 ], [ 10, %10 ]
  ret i32 %.0
}